target datalayout = "e-m:e-p270:32:32-p271:32:32-p272:64:64-i64:64-i128:128-f80:128-n8:16:32:64-S128"
target triple = "x86_64-pc-linux-gnu"

%struct.Tuplestorestate = type { i32, i32, i8, i8, i8, i8, i64, i64, i64, i64, ptr, ptr, ptr, ptr, ptr, ptr, ptr, i32, i32, i32, i8, ptr, i32, i32, i32, i32, i64 }
%struct.TSReadPointer = type { i32, i8, i32, i32, i64 }

@.str = private unnamed_addr constant [39 x i8] c"too late to call tuplestore_set_eflags\00", align 1
@.str.1 = private unnamed_addr constant [13 x i8] c"tuplestore.c\00", align 1
@__func__.tuplestore_set_eflags = private unnamed_addr constant [22 x i8] c"tuplestore_set_eflags\00", align 1

; Function Attrs: nounwind uwtable
define dso_local void @tuplestore_set_eflags(ptr noundef %0, i32 noundef %1) #0 {
  %3 = alloca ptr, align 8
  %4 = alloca i32, align 4
  %5 = alloca i32, align 4
  store ptr %0, ptr %3, align 8
  store i32 %1, ptr %4, align 4
  call void @llvm.lifetime.start.p0(i64 4, ptr %5) #7
  %6 = load ptr, ptr %3, align 8
  %7 = getelementptr inbounds nuw %struct.Tuplestorestate, ptr %6, i32 0, i32 0
  %8 = load i32, ptr %7, align 8
  %9 = icmp ne i32 %8, 0
  br i1 %9, label %15, label %10

10:                                               ; preds = %2
  %11 = load ptr, ptr %3, align 8
  %12 = getelementptr inbounds nuw %struct.Tuplestorestate, ptr %11, i32 0, i32 18
  %13 = load i32, ptr %12, align 4
  %14 = icmp ne i32 %13, 0
  br i1 %14, label %15, label %26

15:                                               ; preds = %10, %2
  br label %16

16:                                               ; preds = %15
  br i1 true, label %17, label %19

17:                                               ; preds = %16
  %18 = call zeroext i1 @errstart_cold(i32 noundef 21, ptr noundef null) #8
  br i1 %18, label %21, label %23

19:                                               ; preds = %16
  %20 = call zeroext i1 @errstart(i32 noundef 21, ptr noundef null)
  br i1 %20, label %21, label %23

21:                                               ; preds = %19, %17
  %22 = call i32 (ptr, ...) @errmsg_internal(ptr noundef @.str)
  call void @errfinish(ptr noundef @.str.1, i32 noundef 376, ptr noundef @__func__.tuplestore_set_eflags)
  br label %23

23:                                               ; preds = %21, %19, %17
  unreachable

24:                                               ; No predecessors!
  br label %25

25:                                               ; preds = %24
  br label %26

26:                                               ; preds = %25, %10
  %27 = load i32, ptr %4, align 4
  %28 = load ptr, ptr %3, align 8
  %29 = getelementptr inbounds nuw %struct.Tuplestorestate, ptr %28, i32 0, i32 21
  %30 = load ptr, ptr %29, align 8
  %31 = getelementptr inbounds %struct.TSReadPointer, ptr %30, i64 0
  %32 = getelementptr inbounds nuw %struct.TSReadPointer, ptr %31, i32 0, i32 0
  store i32 %27, ptr %32, align 8
  store i32 1, ptr %5, align 4
  br label %33

33:                                               ; preds = %50, %26
  %34 = load i32, ptr %5, align 4
  %35 = load ptr, ptr %3, align 8
  %36 = getelementptr inbounds nuw %struct.Tuplestorestate, ptr %35, i32 0, i32 23
  %37 = load i32, ptr %36, align 4
  %38 = icmp slt i32 %34, %37
  br i1 %38, label %39, label %53

39:                                               ; preds = %33
  %40 = load ptr, ptr %3, align 8
  %41 = getelementptr inbounds nuw %struct.Tuplestorestate, ptr %40, i32 0, i32 21
  %42 = load ptr, ptr %41, align 8
  %43 = load i32, ptr %5, align 4
  %44 = sext i32 %43 to i64
  %45 = getelementptr inbounds %struct.TSReadPointer, ptr %42, i64 %44
  %46 = getelementptr inbounds nuw %struct.TSReadPointer, ptr %45, i32 0, i32 0
  %47 = load i32, ptr %46, align 8
  %48 = load i32, ptr %4, align 4
  %49 = or i32 %48, %47
  store i32 %49, ptr %4, align 4
  br label %50

50:                                               ; preds = %39
  %51 = load i32, ptr %5, align 4
  %52 = add i32 %51, 1
  store i32 %52, ptr %5, align 4
  br label %33, !llvm.loop !6

53:                                               ; preds = %33
  %54 = load i32, ptr %4, align 4
  %55 = load ptr, ptr %3, align 8
  %56 = getelementptr inbounds nuw %struct.Tuplestorestate, ptr %55, i32 0, i32 1
  store i32 %54, ptr %56, align 4
  call void @llvm.lifetime.end.p0(i64 4, ptr %5) #7
  ret void
}