; Function Attrs: nounwind uwtable
define dso_local void @tuplestore_set_eflags(ptr noundef captures(none) %0, i32 noundef %1) local_unnamed_addr #0 {
  %3 = load i32, ptr %0, align 8
  %.not = icmp eq i32 %3, 0
  br i1 %.not, label %4, label %7

4:                                                ; preds = %2
  %5 = getelementptr inbounds nuw i8, ptr %0, i64 108
  %6 = load i32, ptr %5, align 4
  %.not12 = icmp eq i32 %6, 0
  br i1 %.not12, label %10, label %7

7:                                                ; preds = %4, %2
  %8 = tail call zeroext i1 @errstart_cold(i32 noundef 21, ptr noundef null) #10
  tail call void @llvm.assume(i1 %8)
  %9 = tail call i32 (ptr, ...) @errmsg_internal(ptr noundef nonnull @.str) #9
  tail call void @errfinish(ptr noundef nonnull @.str.1, i32 noundef 376, ptr noundef nonnull @__func__.tuplestore_set_eflags) #9
  unreachable

10:                                               ; preds = %4
  %11 = getelementptr inbounds nuw i8, ptr %0, i64 120
  %12 = load ptr, ptr %11, align 8
  store i32 %1, ptr %12, align 8
  %13 = getelementptr inbounds nuw i8, ptr %0, i64 132
  %14 = load i32, ptr %13, align 4
  %15 = icmp sgt i32 %14, 1
  br i1 %15, label %.lr.ph, label %._crit_edge

.lr.ph:                                           ; preds = %10
  %16 = load ptr, ptr %11, align 8
  %wide.trip.count = zext nneg i32 %14 to i64
  br label %17

17:                                               ; preds = %.lr.ph, %17
  %indvars.iv = phi i64 [ 1, %.lr.ph ], [ %indvars.iv.next, %17 ]
  %.01113 = phi i32 [ %1, %.lr.ph ], [ %20, %17 ]
  %18 = getelementptr inbounds nuw %struct.TSReadPointer, ptr %16, i64 %indvars.iv
  %19 = load i32, ptr %18, align 8
  %20 = or i32 %19, %.01113
  %indvars.iv.next = add nuw nsw i64 %indvars.iv, 1
  %exitcond.not = icmp eq i64 %indvars.iv.next, %wide.trip.count
  br i1 %exitcond.not, label %._crit_edge, label %17, !llvm.loop !6

._crit_edge:                                      ; preds = %17, %10
  %.011.lcssa = phi i32 [ %1, %10 ], [ %20, %17 ]
  %21 = getelementptr inbounds nuw i8, ptr %0, i64 4
  store i32 %.011.lcssa, ptr %21, align 4
  ret void
}